; Function Attrs: nounwind uwtable
define ptr @l___private_Lean_Elab_Tactic_BVDecide_Frontend_Normalize_Enums_0__Lean_Elab_Tactic_BVDecide_Frontend_Normalize_getMatchEqCondForAux_handleSimpleEnum___lambda__5(ptr noundef %0, ptr noundef %1, ptr noundef %2, ptr noundef %3, ptr noundef %4, ptr noundef %5, ptr noundef %6, ptr noundef %7, ptr noundef %8, ptr noundef %9, ptr noundef %10, ptr noundef %11) #1 {
  %13 = load ptr, ptr @l_Lean_Elab_Tactic_BVDecide_Frontend_Normalize_getEnumToBitVecFor___lambda__2___closed__4, align 8, !tbaa !11
  %14 = ptrtoint ptr %2 to i64
  %15 = and i64 %14, 1
  %.not = icmp eq i64 %15, 0
  br i1 %.not, label %16, label %lean_inc.exit

16:                                               ; preds = %12
  %.val.i = load i32, ptr %2, align 4, !tbaa !4
  %17 = icmp sgt i32 %.val.i, 0
  br i1 %17, label %18, label %20, !prof !13

18:                                               ; preds = %16
  %19 = add nuw i32 %.val.i, 1
  store i32 %19, ptr %2, align 4, !tbaa !4
  br label %lean_inc.exit

20:                                               ; preds = %16
  %.not.i = icmp eq i32 %.val.i, 0
  br i1 %.not.i, label %lean_inc.exit, label %21

21:                                               ; preds = %20
  tail call void @lean_inc_ref_cold(ptr noundef nonnull %2) #7
  br label %lean_inc.exit

lean_inc.exit:                                    ; preds = %21, %20, %18, %12
  tail call void @lean_inc_heartbeat() #7
  %22 = tail call noalias ptr @mi_malloc_small(i64 noundef 88) #7
  %23 = icmp eq ptr %22, null
  br i1 %23, label %24, label %lean_alloc_closure.exit

24:                                               ; preds = %lean_inc.exit
  tail call void @lean_internal_panic_out_of_memory() #6
  unreachable

lean_alloc_closure.exit:                          ; preds = %lean_inc.exit
  %25 = getelementptr inbounds nuw i8, ptr %22, i64 4
  store i32 1, ptr %22, align 4, !tbaa !4
  store i32 -184549288, ptr %25, align 4
  %26 = getelementptr inbounds nuw i8, ptr %22, i64 8
  store ptr @l___private_Lean_Elab_Tactic_BVDecide_Frontend_Normalize_Enums_0__Lean_Elab_Tactic_BVDecide_Frontend_Normalize_getMatchEqCondForAux_handleSimpleEnum___lambda__4, ptr %26, align 8, !tbaa !11
  %27 = getelementptr inbounds nuw i8, ptr %22, i64 16
  store i16 14, ptr %27, align 8, !tbaa !15
  %28 = getelementptr inbounds nuw i8, ptr %22, i64 18
  store i16 8, ptr %28, align 2, !tbaa !15
  %29 = getelementptr inbounds nuw i8, ptr %22, i64 24
  store ptr %0, ptr %29, align 8, !tbaa !11
  %30 = getelementptr inbounds nuw i8, ptr %22, i64 32
  store ptr %6, ptr %30, align 8, !tbaa !11
  %31 = getelementptr inbounds nuw i8, ptr %22, i64 40
  store ptr %1, ptr %31, align 8, !tbaa !11
  %32 = getelementptr inbounds nuw i8, ptr %22, i64 48
  store ptr %13, ptr %32, align 8, !tbaa !11
  %33 = getelementptr inbounds nuw i8, ptr %22, i64 56
  store ptr %2, ptr %33, align 8, !tbaa !11
  %34 = getelementptr inbounds nuw i8, ptr %22, i64 64
  store ptr %3, ptr %34, align 8, !tbaa !11
  %35 = getelementptr inbounds nuw i8, ptr %22, i64 72
  store ptr %4, ptr %35, align 8, !tbaa !11
  %36 = getelementptr inbounds nuw i8, ptr %22, i64 80
  store ptr %5, ptr %36, align 8, !tbaa !11
  %37 = tail call ptr @l_Lean_Meta_withLocalDecl___at_Lean_Meta_Simp_Arith_withAbstractAtoms_go___spec__1___rarg(ptr noundef %13, i8 noundef zeroext 0, ptr noundef %2, ptr noundef nonnull %22, i8 noundef zeroext 0, ptr noundef %7, ptr noundef %8, ptr noundef %9, ptr noundef %10, ptr noundef %11) #7
  ret ptr %37
}